; Function Attrs: mustprogress nounwind uwtable
define hidden void @_ZN23JvmtiManageCapabilities26get_potential_capabilitiesEPK17jvmtiCapabilitiesS2_PS0_(ptr nocapture noundef readonly %0, ptr nocapture noundef readonly %1, ptr nocapture noundef %2) local_unnamed_addr #0 align 2 {
  %4 = load ptr, ptr @_ZN23JvmtiManageCapabilities18_capabilities_lockE, align 8
  %5 = tail call align 8 ptr @llvm.threadlocal.address.p0(ptr align 8 @_ZN6Thread12_thr_currentE)
  %6 = load ptr, ptr %5, align 8
  %.not.i = icmp eq ptr %6, null
  %7 = select i1 %.not.i, ptr null, ptr %4
  %.not.i.i.i = icmp eq ptr %7, null
  br i1 %.not.i.i.i, label %_ZN23JvmtiManageCapabilities23CapabilitiesMutexLockerC2Ev.exit.preheader, label %8

8:                                                ; preds = %3
  tail call void @_ZN5Mutex28lock_without_safepoint_checkEv(ptr noundef nonnull align 8 dereferenceable(104) %7) #8
  br label %_ZN23JvmtiManageCapabilities23CapabilitiesMutexLockerC2Ev.exit.preheader

_ZN23JvmtiManageCapabilities23CapabilitiesMutexLockerC2Ev.exit.preheader: ; preds = %3, %8
  br label %_ZN23JvmtiManageCapabilities23CapabilitiesMutexLockerC2Ev.exit

_ZN23JvmtiManageCapabilities23CapabilitiesMutexLockerC2Ev.exit: ; preds = %_ZN23JvmtiManageCapabilities23CapabilitiesMutexLockerC2Ev.exit.preheader, %_ZN23JvmtiManageCapabilities23CapabilitiesMutexLockerC2Ev.exit
  %.014.i.i = phi i32 [ %16, %_ZN23JvmtiManageCapabilities23CapabilitiesMutexLockerC2Ev.exit ], [ 0, %_ZN23JvmtiManageCapabilities23CapabilitiesMutexLockerC2Ev.exit.preheader ]
  %.0813.i.i = phi ptr [ %15, %_ZN23JvmtiManageCapabilities23CapabilitiesMutexLockerC2Ev.exit ], [ %2, %_ZN23JvmtiManageCapabilities23CapabilitiesMutexLockerC2Ev.exit.preheader ]
  %.0912.i.i = phi ptr [ %11, %_ZN23JvmtiManageCapabilities23CapabilitiesMutexLockerC2Ev.exit ], [ %1, %_ZN23JvmtiManageCapabilities23CapabilitiesMutexLockerC2Ev.exit.preheader ]
  %.01011.i.i = phi ptr [ %9, %_ZN23JvmtiManageCapabilities23CapabilitiesMutexLockerC2Ev.exit ], [ @_ZN23JvmtiManageCapabilities19always_capabilitiesE, %_ZN23JvmtiManageCapabilities23CapabilitiesMutexLockerC2Ev.exit.preheader ]
  %9 = getelementptr inbounds i8, ptr %.01011.i.i, i64 1
  %10 = load i8, ptr %.01011.i.i, align 1
  %11 = getelementptr inbounds i8, ptr %.0912.i.i, i64 1
  %12 = load i8, ptr %.0912.i.i, align 1
  %13 = xor i8 %12, -1
  %14 = and i8 %10, %13
  %15 = getelementptr inbounds i8, ptr %.0813.i.i, i64 1
  store i8 %14, ptr %.0813.i.i, align 1
  %16 = add nuw nsw i32 %.014.i.i, 1
  %exitcond.not.i.i = icmp eq i32 %16, 6
  br i1 %exitcond.not.i.i, label %_ZN23JvmtiManageCapabilities7excludeEPK17jvmtiCapabilitiesS2_PS0_.exit.i, label %_ZN23JvmtiManageCapabilities23CapabilitiesMutexLockerC2Ev.exit, !llvm.loop !9

_ZN23JvmtiManageCapabilities7excludeEPK17jvmtiCapabilitiesS2_PS0_.exit.i: ; preds = %_ZN23JvmtiManageCapabilities23CapabilitiesMutexLockerC2Ev.exit, %_ZN23JvmtiManageCapabilities7excludeEPK17jvmtiCapabilitiesS2_PS0_.exit.i
  %.014.i11.i = phi i32 [ %22, %_ZN23JvmtiManageCapabilities7excludeEPK17jvmtiCapabilitiesS2_PS0_.exit.i ], [ 0, %_ZN23JvmtiManageCapabilities23CapabilitiesMutexLockerC2Ev.exit ]
  %.0813.i12.i = phi ptr [ %17, %_ZN23JvmtiManageCapabilities7excludeEPK17jvmtiCapabilitiesS2_PS0_.exit.i ], [ %2, %_ZN23JvmtiManageCapabilities23CapabilitiesMutexLockerC2Ev.exit ]
  %.0912.i13.i = phi ptr [ %19, %_ZN23JvmtiManageCapabilities7excludeEPK17jvmtiCapabilitiesS2_PS0_.exit.i ], [ %0, %_ZN23JvmtiManageCapabilities23CapabilitiesMutexLockerC2Ev.exit ]
  %17 = getelementptr i8, ptr %.0813.i12.i, i64 1
  %18 = load i8, ptr %.0813.i12.i, align 1
  %19 = getelementptr inbounds i8, ptr %.0912.i13.i, i64 1
  %20 = load i8, ptr %.0912.i13.i, align 1
  %21 = or i8 %20, %18
  store i8 %21, ptr %.0813.i12.i, align 1
  %22 = add nuw nsw i32 %.014.i11.i, 1
  %exitcond.not.i15.i = icmp eq i32 %22, 6
  br i1 %exitcond.not.i15.i, label %_ZN23JvmtiManageCapabilities6eitherEPK17jvmtiCapabilitiesS2_PS0_.exit.i, label %_ZN23JvmtiManageCapabilities7excludeEPK17jvmtiCapabilitiesS2_PS0_.exit.i, !llvm.loop !6

_ZN23JvmtiManageCapabilities6eitherEPK17jvmtiCapabilitiesS2_PS0_.exit.i: ; preds = %_ZN23JvmtiManageCapabilities7excludeEPK17jvmtiCapabilitiesS2_PS0_.exit.i, %_ZN23JvmtiManageCapabilities6eitherEPK17jvmtiCapabilitiesS2_PS0_.exit.i
  %.014.i16.i = phi i32 [ %28, %_ZN23JvmtiManageCapabilities6eitherEPK17jvmtiCapabilitiesS2_PS0_.exit.i ], [ 0, %_ZN23JvmtiManageCapabilities7excludeEPK17jvmtiCapabilitiesS2_PS0_.exit.i ]
  %.0813.i17.i = phi ptr [ %23, %_ZN23JvmtiManageCapabilities6eitherEPK17jvmtiCapabilitiesS2_PS0_.exit.i ], [ %2, %_ZN23JvmtiManageCapabilities7excludeEPK17jvmtiCapabilitiesS2_PS0_.exit.i ]
  %.0912.i18.i = phi ptr [ %25, %_ZN23JvmtiManageCapabilities6eitherEPK17jvmtiCapabilitiesS2_PS0_.exit.i ], [ @_ZN23JvmtiManageCapabilities34always_solo_remaining_capabilitiesE, %_ZN23JvmtiManageCapabilities7excludeEPK17jvmtiCapabilitiesS2_PS0_.exit.i ]
  %23 = getelementptr i8, ptr %.0813.i17.i, i64 1
  %24 = load i8, ptr %.0813.i17.i, align 1
  %25 = getelementptr inbounds i8, ptr %.0912.i18.i, i64 1
  %26 = load i8, ptr %.0912.i18.i, align 1
  %27 = or i8 %26, %24
  store i8 %27, ptr %.0813.i17.i, align 1
  %28 = add nuw nsw i32 %.014.i16.i, 1
  %exitcond.not.i20.i = icmp eq i32 %28, 6
  br i1 %exitcond.not.i20.i, label %_ZN23JvmtiManageCapabilities6eitherEPK17jvmtiCapabilitiesS2_PS0_.exit21.i, label %_ZN23JvmtiManageCapabilities6eitherEPK17jvmtiCapabilitiesS2_PS0_.exit.i, !llvm.loop !6

_ZN23JvmtiManageCapabilities6eitherEPK17jvmtiCapabilitiesS2_PS0_.exit21.i: ; preds = %_ZN23JvmtiManageCapabilities6eitherEPK17jvmtiCapabilitiesS2_PS0_.exit.i
  %29 = load i32, ptr @_ZN12JvmtiEnvBase6_phaseE, align 4
  %30 = icmp eq i32 %29, 1
  br i1 %30, label %.preheader.i, label %_ZN23JvmtiManageCapabilities33get_potential_capabilities_nolockEPK17jvmtiCapabilitiesS2_PS0_.exit

.preheader.i:                                     ; preds = %_ZN23JvmtiManageCapabilities6eitherEPK17jvmtiCapabilitiesS2_PS0_.exit21.i, %.preheader.i
  %.014.i22.i = phi i32 [ %36, %.preheader.i ], [ 0, %_ZN23JvmtiManageCapabilities6eitherEPK17jvmtiCapabilitiesS2_PS0_.exit21.i ]
  %.0813.i23.i = phi ptr [ %31, %.preheader.i ], [ %2, %_ZN23JvmtiManageCapabilities6eitherEPK17jvmtiCapabilitiesS2_PS0_.exit21.i ]
  %.0912.i24.i = phi ptr [ %33, %.preheader.i ], [ @_ZN23JvmtiManageCapabilities19onload_capabilitiesE, %_ZN23JvmtiManageCapabilities6eitherEPK17jvmtiCapabilitiesS2_PS0_.exit21.i ]
  %31 = getelementptr i8, ptr %.0813.i23.i, i64 1
  %32 = load i8, ptr %.0813.i23.i, align 1
  %33 = getelementptr inbounds i8, ptr %.0912.i24.i, i64 1
  %34 = load i8, ptr %.0912.i24.i, align 1
  %35 = or i8 %34, %32
  store i8 %35, ptr %.0813.i23.i, align 1
  %36 = add nuw nsw i32 %.014.i22.i, 1
  %exitcond.not.i26.i = icmp eq i32 %36, 6
  br i1 %exitcond.not.i26.i, label %_ZN23JvmtiManageCapabilities6eitherEPK17jvmtiCapabilitiesS2_PS0_.exit27.i, label %.preheader.i, !llvm.loop !6

_ZN23JvmtiManageCapabilities6eitherEPK17jvmtiCapabilitiesS2_PS0_.exit27.i: ; preds = %.preheader.i, %_ZN23JvmtiManageCapabilities6eitherEPK17jvmtiCapabilitiesS2_PS0_.exit27.i
  %.014.i28.i = phi i32 [ %42, %_ZN23JvmtiManageCapabilities6eitherEPK17jvmtiCapabilitiesS2_PS0_.exit27.i ], [ 0, %.preheader.i ]
  %.0813.i29.i = phi ptr [ %37, %_ZN23JvmtiManageCapabilities6eitherEPK17jvmtiCapabilitiesS2_PS0_.exit27.i ], [ %2, %.preheader.i ]
  %.0912.i30.i = phi ptr [ %39, %_ZN23JvmtiManageCapabilities6eitherEPK17jvmtiCapabilitiesS2_PS0_.exit27.i ], [ @_ZN23JvmtiManageCapabilities34onload_solo_remaining_capabilitiesE, %.preheader.i ]
  %37 = getelementptr i8, ptr %.0813.i29.i, i64 1
  %38 = load i8, ptr %.0813.i29.i, align 1
  %39 = getelementptr inbounds i8, ptr %.0912.i30.i, i64 1
  %40 = load i8, ptr %.0912.i30.i, align 1
  %41 = or i8 %40, %38
  store i8 %41, ptr %.0813.i29.i, align 1
  %42 = add nuw nsw i32 %.014.i28.i, 1
  %exitcond.not.i32.i = icmp eq i32 %42, 6
  br i1 %exitcond.not.i32.i, label %_ZN23JvmtiManageCapabilities33get_potential_capabilities_nolockEPK17jvmtiCapabilitiesS2_PS0_.exit, label %_ZN23JvmtiManageCapabilities6eitherEPK17jvmtiCapabilitiesS2_PS0_.exit27.i, !llvm.loop !6

_ZN23JvmtiManageCapabilities33get_potential_capabilities_nolockEPK17jvmtiCapabilitiesS2_PS0_.exit: ; preds = %_ZN23JvmtiManageCapabilities6eitherEPK17jvmtiCapabilitiesS2_PS0_.exit27.i, %_ZN23JvmtiManageCapabilities6eitherEPK17jvmtiCapabilitiesS2_PS0_.exit21.i
  br i1 %.not.i.i.i, label %_ZN23JvmtiManageCapabilities23CapabilitiesMutexLockerD2Ev.exit, label %43

43:                                               ; preds = %_ZN23JvmtiManageCapabilities33get_potential_capabilities_nolockEPK17jvmtiCapabilitiesS2_PS0_.exit
  tail call void @_ZN5Mutex6unlockEv(ptr noundef nonnull align 8 dereferenceable(104) %7) #8
  br label %_ZN23JvmtiManageCapabilities23CapabilitiesMutexLockerD2Ev.exit

_ZN23JvmtiManageCapabilities23CapabilitiesMutexLockerD2Ev.exit: ; preds = %_ZN23JvmtiManageCapabilities33get_potential_capabilities_nolockEPK17jvmtiCapabilitiesS2_PS0_.exit, %43
  ret void
}